(dp0
S'seven_day_hell.srt'
p1
(imovieObj
movieObj
p2
(dp3
S'movieName'
p4
S'Seven day hell'
p5
sS'movieImageFileLocation'
p6
S'sevenday.jpg'
p7
sbsS'Saving_Prvt_Ryan.srt'
p8
(imovieObj
movieObj
p9
(dp10
g4
S'Saving Private Ryan'
p11
sg6
S'svp.jpg'
p12
sbsS'Moneyball.srt'
p13
(imovieObj
movieObj
p14
(dp15
g4
S'Moneyball'
p16
sg6
S'money.jpg'
p17
sbsS'Shawshank Redemption The.DVDRip.en.srt'
p18
(imovieObj
movieObj
p19
(dp20
g4
S'Shawshank Redemption'
p21
sg6
S'shaw.jpg'
p22
sbsS'Hangover.srt'
p23
(imovieObj
movieObj
p24
(dp25
g4
S'Hangover'
p26
sg6
S'hang.jpg'
p27
sbsS'Spotlight.srt'
p28
(imovieObj
movieObj
p29
(dp30
g4
S'Spotlight'
p31
sg6
S'spot.jpg'
p32
sbsS'titanitc.srt'
p33
(imovieObj
movieObj
p34
(dp35
g4
S'Titanic'
p36
sg6
S't.jpg'
p37
sbsS'Birdman.srt'
p38
(imovieObj
movieObj
p39
(dp40
g4
S'Birdman'
p41
sg6
S'b.jpg'
p42
sbsS'Nightmare_on_elm_st.srt'
p43
(imovieObj
movieObj
p44
(dp45
g4
S'Nightmare on Elm Street'
p46
sg6
S'nightmare.jpg'
p47
sbsS'carol.srt'
p48
(imovieObj
movieObj
p49
(dp50
g4
S'Carol'
p51
sg6
S'c.jpg'
p52
sbsS'Interstellar.1080p.BlueRay.RARBG.en.srt'
p53
(imovieObj
movieObj
p54
(dp55
g4
S'Interstellar'
p56
sg6
S'i.jpg'
p57
sbsS'Lucy.srt'
p58
(imovieObj
movieObj
p59
(dp60
g4
S'Lucy'
p61
sg6
S'lucy.jpg'
p62
sbsS'Halloween.srt'
p63
(imovieObj
movieObj
p64
(dp65
g4
S'Halloween'
p66
sg6
S'hall.jpg'
p67
sbsS'Osaka_Tough_Guys.srt'
p68
(imovieObj
movieObj
p69
(dp70
g4
S'Osaka Tough Guys'
p71
sg6
S'os.jpeg'
p72
sbsS'District_9.srt'
p73
(imovieObj
movieObj
p74
(dp75
g4
S'District 9'
p76
sg6
S'd2.jpg'
p77
sbsS'The_Maritian.srt'
p78
(imovieObj
movieObj
p79
(dp80
g4
S'The Maritian'
p81
sg6
S'mart.jpg'
p82
sbsS'Room.srt'
p83
(imovieObj
movieObj
p84
(dp85
g4
S'Room'
p86
sg6
S'room.jpg'
p87
sbsS'Fight_Clup.srt'
p88
(imovieObj
movieObj
p89
(dp90
g4
S'Fight Club'
p91
sg6
S'fight.jpg'
p92
sbsS'Lion King The.DVDRip.en.srt'
p93
(imovieObj
movieObj
p94
(dp95
g4
S'Lion King'
p96
sg6
S'lk.jpg'
p97
sbsS'Inception.srt'
p98
(imovieObj
movieObj
p99
(dp100
g4
S'Inception'
p101
sg6
S'inception.jpg'
p102
sbsS'The_Imitation_Game.srt'
p103
(imovieObj
movieObj
p104
(dp105
g4
S'The Imitation Game'
p106
sg6
S'game.jpeg'
p107
sbsS'Dilwale.srt'
p108
(imovieObj
movieObj
p109
(dp110
g4
S'Dilwale'
p111
sg6
S'd1.jpg'
p112
sbsS'The_Dark_Night.srt'
p113
(imovieObj
movieObj
p114
(dp115
g4
S'Dark Knight'
p116
sg6
S'dark.jpg'
p117
sbsS'Pulp Fiction (1994).en.srt'
p118
(imovieObj
movieObj
p119
(dp120
g4
S'Pulp Fiction'
p121
sg6
S'pulp.jpg'
p122
sbsS'Se7en Seven (1995).en.srt'
p123
(imovieObj
movieObj
p124
(dp125
g4
S'Seven'
p126
sg6
S'7.jpg'
p127
sbsS'Highway.srt'
p128
(imovieObj
movieObj
p129
(dp130
g4
S'Highway'
p131
sg6
S'highway.jpg'
p132
sbsS'The_Revenant.srt'
p133
(imovieObj
movieObj
p134
(dp135
g4
S'The Revenant'
p136
sg6
S'rev.jpg'
p137
sbsS'the_rev.srt'
p138
(imovieObj
movieObj
p139
(dp140
g4
S'The Rev'
p141
sg6
g137
sbsS'social_network.srt'
p142
(imovieObj
movieObj
p143
(dp144
g4
S'Social Network'
p145
sg6
S'sn.jpg'
p146
sbsS'Forrest Gump (1994).DVDRip.UnSeeN.en.srt'
p147
(imovieObj
movieObj
p148
(dp149
g4
S'Forrest Gump'
p150
sg6
S'fg.jpg'
p151
sbsS'Goodfellas (1990).DVDRip.en.srt'
p152
(imovieObj
movieObj
p153
(dp154
g4
S'Goodfellas'
p155
sg6
S'good.jpg'
p156
sbsS'Sisters.srt'
p157
(imovieObj
movieObj
p158
(dp159
g4
S'Sisters'
p160
sg6
S'sis.jpg'
p161
sbsS'The_Departed.srt'
p162
(imovieObj
movieObj
p163
(dp164
g4
S'The Departed'
p165
sg6
S'depart.jpg'
p166
sbsS'Deadpool.srt'
p167
(imovieObj
movieObj
p168
(dp169
g4
S'Deadpool'
p170
sg6
S'd.jpg'
p171
sbsS'slumdog.srt'
p172
(imovieObj
movieObj
p173
(dp174
g4
S'Slumdog'
p175
sg6
S'slum.jpg'
p176
sbsS'Django_Unchained.srt'
p177
(imovieObj
movieObj
p178
(dp179
g4
S'Django Unchained'
p180
sg6
S'dj.jpg'
p181
sbsS'Mad_Max_Fury_Road.srt'
p182
(imovieObj
movieObj
p183
(dp184
g4
S'Mad Max Fury Road'
p185
sg6
S'mad.jpg'
p186
sbsS'Psycho.srt'
p187
(imovieObj
movieObj
p188
(dp189
g4
S'Pyscho'
p190
sg6
S'p.jpg'
p191
sbsS'The_Mutilator.srt'
p192
(imovieObj
movieObj
p193
(dp194
g4
S'The Mutilator'
p195
sg6
S'mut.jpg'
p196
sbsS'Comfort_and_Joy.srt'
p197
(imovieObj
movieObj
p198
(dp199
g4
S'Comfort and Joy'
p200
sg6
S'c1.jpg'
p201
sbsS'Fifty_Shades_Of_Gray.srt'
p202
(imovieObj
movieObj
p203
(dp204
g4
S'Fifty Shades'
p205
sg6
S'five.jpg'
p206
sbsS'Green Mile The(1999).en.srt'
p207
(imovieObj
movieObj
p208
(dp209
g4
S'Green Mile'
p210
sg6
S'green.jpg'
p211
sbsS'Kung_Fu_Panda.srt'
p212
(imovieObj
movieObj
p213
(dp214
g4
S'Kung Fu Panda'
p215
sg6
S'kf.jpg'
p216
sbsS'Gladiator.720p.SiLU.en.srt'
p217
(imovieObj
movieObj
p218
(dp219
g4
S'Gladiator'
p220
sg6
S'g.jpg'
p221
sbs.